(lp0
S'/med_data/Segmentation/AT/1_5T/PLIS3_3521_PC/rework.mat'
p1
aS'/med_data/Segmentation/AT/1_5T/PREG2_3267_NH/rework.mat'
p2
aS'/med_data/Segmentation/AT/1_5T/PREG_3686_AH/rework.mat'
p3
aS'/med_data/Segmentation/AT/1_5T/PREG_3462_FO/rework.mat'
p4
aS'/med_data/Segmentation/AT/1_5T/PLIS_WW/rework.mat'
p5
aS'/med_data/Segmentation/AT/1_5T/TULIP_581_ES/rework.mat'
p6
aS'/med_data/Segmentation/AT/1_5T/PLIS2_3238_HM/rework.mat'
p7
aS'/med_data/Segmentation/AT/1_5T/PLIS2_3674_AS/rework.mat'
p8
aS'/med_data/Segmentation/AT/1_5T/PLIS17_3820_JS/rework.mat'
p9
aS'/med_data/Segmentation/AT/1_5T/PLIS2_1306_BS/rework.mat'
p10
aS'/med_data/Segmentation/AT/1_5T/PLIS2_3867_IB/rework.mat'
p11
aS'/med_data/Segmentation/AT/1_5T/PREG_3795_SE/rework.mat'
p12
aS'/med_data/Segmentation/AT/1_5T/TULIP_1363_CP/rework.mat'
p13
aS'/med_data/Segmentation/AT/1_5T/PLIS_3523_MF/rework.mat'
p14
aS'/med_data/Segmentation/AT/1_5T/PREG_3148_CB/rework.mat'
p15
aS'/med_data/Segmentation/AT/1_5T/PLIS3_3613_GF/rework.mat'
p16
aS'/med_data/Segmentation/AT/1_5T/PLIS2_3305_JR/rework.mat'
p17
aS'/med_data/Segmentation/AT/1_5T/PLIS2_3340_FA/rework.mat'
p18
aS'/med_data/Segmentation/AT/1_5T/TULIP_1415_BS/rework.mat'
p19
aS'/med_data/Segmentation/AT/1_5T/TULIP_1788_HS/rework.mat'
p20
aS'/med_data/Segmentation/AT/1_5T/PLIS2_3911_KB/rework.mat'
p21
aS'/med_data/Segmentation/AT/1_5T/PLIS2_2205_HS/rework.mat'
p22
aS'/med_data/Segmentation/AT/1_5T/TULIP_1494_SP/rework.mat'
p23
aS'/med_data/Segmentation/AT/1_5T/PLIS_3509_ID/rework.mat'
p24
aS'/med_data/Segmentation/AT/1_5T/GKF_HS_1438/rework.mat'
p25
aS'/med_data/Segmentation/AT/1_5T/PLIS3_804_AS/rework.mat'
p26
aS'/med_data/Segmentation/AT/1_5T/TULIP_980_BM/rework.mat'
p27
aS'/med_data/Segmentation/AT/1_5T/PLIS3_1645_GZ/rework.mat'
p28
aS'/med_data/Segmentation/AT/1_5T/TULIP_493_MM/rework.mat'
p29
aS'/med_data/Segmentation/AT/1_5T/TULIP_1738_AE/rework.mat'
p30
aS'/med_data/Segmentation/AT/1_5T/PLIS4_2733_PL/rework.mat'
p31
aS'/med_data/Segmentation/AT/1_5T/PLIS_3850_MM/rework.mat'
p32
aS'/med_data/Segmentation/AT/1_5T/PLIS2_3932_KB/rework.mat'
p33
aS'/med_data/Segmentation/AT/1_5T/PLIS3_3436_SP/rework.mat'
p34
aS'/med_data/Segmentation/AT/1_5T/PLIS3_3056_PB/rework.mat'
p35
aS'/med_data/Segmentation/AT/1_5T/PLIS3_1583_IS/rework.mat'
p36
aS'/med_data/Segmentation/AT/1_5T/PLIS2_148_TC/rework.mat'
p37
aS'/med_data/Segmentation/AT/1_5T/PLIS2_3515_RN/rework.mat'
p38
aS'/med_data/Segmentation/AT/1_5T/PLIS_3571_KK/rework.mat'
p39
aS'/med_data/Segmentation/AT/1_5T/TULIP_1537_AS/rework.mat'
p40
aS'/med_data/Segmentation/AT/1_5T/PLIS_4047_IH/rework.mat'
p41
aS'/med_data/Segmentation/AT/1_5T/PREG_3918_SV/rework.mat'
p42
aS'/med_data/Segmentation/AT/1_5T/PLIS2_145_KW/rework.mat'
p43
aS'/med_data/Segmentation/AT/1_5T/PLIS4_3254_GB/rework.mat'
p44
aS'/med_data/Segmentation/AT/1_5T/PLIS_3981_SM/rework.mat'
p45
aS'/med_data/Segmentation/AT/1_5T/PLIS4_3344_GB/rework.mat'
p46
aS'/med_data/Segmentation/AT/1_5T/PLIS3_1489_GD/rework.mat'
p47
aS'/med_data/Segmentation/AT/1_5T/PREG_3465_AR/rework.mat'
p48
aS'/med_data/Segmentation/AT/1_5T/PREG_3242_NF/rework.mat'
p49
aS'/med_data/Segmentation/AT/1_5T/PLIS2_2502_EJ/rework.mat'
p50
aS'/med_data/Segmentation/AT/1_5T/PLIS2_3923_RW/rework.mat'
p51
aS'/med_data/Segmentation/AT/1_5T/PLIS_3958_KZ/rework.mat'
p52
aS'/med_data/Segmentation/AT/1_5T/TULIP_1296_TR/rework.mat'
p53
aS'/med_data/Segmentation/AT/1_5T/TULIP_1515_AB/rework.mat'
p54
aS'/med_data/Segmentation/AT/1_5T/PLIS2_3084_UG/rework.mat'
p55
aS'/med_data/Segmentation/AT/1_5T/PLIS2_2777_CF/rework.mat'
p56
aS'/med_data/Segmentation/AT/1_5T/PLIS2_3309_CR/rework.mat'
p57
aS'/med_data/Segmentation/AT/1_5T/PREG_3304_CK/rework.mat'
p58
aS'/med_data/Segmentation/AT/1_5T/PLIS_4037_JR/rework.mat'
p59
aS'/med_data/Segmentation/AT/1_5T/TULIP_1431_AH/rework.mat'
p60
aS'/med_data/Segmentation/AT/1_5T/PLIS2_3406_UK/rework.mat'
p61
aS'/med_data/Segmentation/AT/1_5T/PLIS_3814_WP/rework.mat'
p62
aS'/med_data/Segmentation/AT/1_5T/TULIP_1514_MS/rework.mat'
p63
aS'/med_data/Segmentation/AT/1_5T/PREG2_3360_AK/rework.mat'
p64
aS'/med_data/Segmentation/AT/1_5T/PLIS2_1606_MK/rework.mat'
p65
aS'/med_data/Segmentation/AT/1_5T/PLIS_3625_IP/rework.mat'
p66
aS'/med_data/Segmentation/AT/1_5T/PLIS2_1577_ZT/rework.mat'
p67
aS'/med_data/Segmentation/AT/1_5T/PLIS2_3869_RM/rework.mat'
p68
aS'/med_data/Segmentation/AT/1_5T/PLIS3_3606_EN/rework.mat'
p69
aS'/med_data/Segmentation/AT/1_5T/PLIS2_3282_DS/rework.mat'
p70
aS'/med_data/Segmentation/AT/1_5T/PLIS2_2619_SL/rework.mat'
p71
aS'/med_data/Segmentation/AT/1_5T/PREG_3392_NN/rework.mat'
p72
aS'/med_data/Segmentation/AT/1_5T/TULIP_1727_JL/rework.mat'
p73
aS'/med_data/Segmentation/AT/1_5T/PLIS2_3629_DL/rework.mat'
p74
aS'/med_data/Segmentation/AT/1_5T/TULIP_1158_MS/rework.mat'
p75
aS'/med_data/Segmentation/AT/1_5T/PLIS2_3728_BT/rework.mat'
p76
aS'/med_data/Segmentation/AT/1_5T/PLIS3_3078_JW/rework.mat'
p77
aS'/med_data/Segmentation/AT/1_5T/PLIS_3923_RW/rework.mat'
p78
aS'/med_data/Segmentation/AT/1_5T/PREG_3496_CE/rework.mat'
p79
aS'/med_data/Segmentation/AT/1_5T/PLIS_2487_AK/rework.mat'
p80
aS'/med_data/Segmentation/AT/1_5T/PREG_3762_KH/rework.mat'
p81
aS'/med_data/Segmentation/AT/1_5T/PLIS3_3556_JH/rework.mat'
p82
aS'/med_data/Segmentation/AT/1_5T/TULIP_1496_HK/rework.mat'
p83
aS'/med_data/Segmentation/AT/1_5T/PLIS2_3482_WS/rework.mat'
p84
aS'/med_data/Segmentation/AT/1_5T/PLIS2_3575_GB/rework.mat'
p85
aS'/med_data/Segmentation/AT/1_5T/PLIS3_3469_VR/rework.mat'
p86
aS'/med_data/Segmentation/AT/1_5T/PLIS_3566_SS/rework.mat'
p87
aS'/med_data/Segmentation/AT/1_5T/TULIP_1527_KM/rework.mat'
p88
aS'/med_data/Segmentation/AT/1_5T/PLIS_4042_HK/rework.mat'
p89
aS'/med_data/Segmentation/AT/1_5T/PLIS_3864_RF/rework.mat'
p90
aS'/med_data/Segmentation/AT/1_5T/PLIS_4073_AG/rework.mat'
p91
aS'/med_data/Segmentation/AT/1_5T/PREG_3132_SH/rework.mat'
p92
aS'/med_data/Segmentation/AT/1_5T/TULIP_1455_MK/rework.mat'
p93
aS'/med_data/Segmentation/AT/1_5T/PLIS_3680_WB/rework.mat'
p94
aS'/med_data/Segmentation/AT/1_5T/PREG_3281_AE/rework.mat'
p95
aS'/med_data/Segmentation/AT/1_5T/PLIS_3602_HN/rework.mat'
p96
aS'/med_data/Segmentation/AT/1_5T/PLIS2_3196_BB/rework.mat'
p97
aS'/med_data/Segmentation/AT/1_5T/PLIS_3808_CL/rework.mat'
p98
aS'/med_data/Segmentation/AT/1_5T/PLIS_3840_JP/rework.mat'
p99
aS'/med_data/Segmentation/AT/1_5T/PLIS_3482_WS/rework.mat'
p100
aS'/med_data/Segmentation/AT/1_5T/PLIS_4058_HR/rework.mat'
p101
aS'/med_data/Segmentation/AT/1_5T/PLIS2_3680_WB/rework.mat'
p102
aS'/med_data/Segmentation/AT/1_5T/PLIS_3763_IR/rework.mat'
p103
aS'/med_data/Segmentation/AT/1_5T/PLIS3_3178_HR/rework.mat'
p104
aS'/med_data/Segmentation/AT/1_5T/PLIS_3830_KL/rework.mat'
p105
aS'/med_data/Segmentation/AT/1_5T/PREG_3917_SB/rework.mat'
p106
aS'/med_data/Segmentation/AT/1_5T/PLIS_3986_SM/rework.mat'
p107
aS'/med_data/Segmentation/AT/1_5T/TULIP_1342_HK/rework.mat'
p108
aS'/med_data/Segmentation/AT/1_5T/PREG2_3578_SJ/rework.mat'
p109
aS'/med_data/Segmentation/AT/1_5T/PLIS2_AM_3060/rework.mat'
p110
aS'/med_data/Segmentation/AT/1_5T/PLIS3_3254_GB/rework.mat'
p111
aS'/med_data/Segmentation/AT/1_5T/PLIS_3787_RL/rework.mat'
p112
aS'/med_data/Segmentation/AT/1_5T/PREG_3594_VK/rework.mat'
p113
aS'/med_data/Segmentation/AT/1_5T/PLIS3_3565_MS/rework.mat'
p114
aS'/med_data/Segmentation/AT/1_5T/PLIS_3609_GK/rework.mat'
p115
aS'/med_data/Segmentation/AT/1_5T/PLIS_4028_EP/rework.mat'
p116
aS'/med_data/Segmentation/AT/1_5T/PLIS3_3251_KH/rework.mat'
p117
aS'/med_data/Segmentation/AT/1_5T/PLIS_3582_JR/rework.mat'
p118
aS'/med_data/Segmentation/AT/1_5T/PLIS2_1583_IS/rework.mat'
p119
aS'/med_data/Segmentation/AT/1_5T/PLIS4_2889_HT/rework.mat'
p120
aS'/med_data/Segmentation/AT/1_5T/PLIS_2458_RN/rework.mat'
p121
aS'/med_data/Segmentation/AT/1_5T/PREG_3605_MW/rework.mat'
p122
aS'/med_data/Segmentation/AT/1_5T/PREG_3492_ST/rework.mat'
p123
aS'/med_data/Segmentation/AT/1_5T/TULIP_1662_MS/rework.mat'
p124
aS'/med_data/Segmentation/AT/1_5T/PLIS3_1292_RV-oder1447_RV/rework.mat'
p125
aS'/med_data/Segmentation/AT/1_5T/PLIS2_3177_DR/rework.mat'
p126
aS'/med_data/Segmentation/AT/1_5T/PLIS2_3330_BK/rework.mat'
p127
aS'/med_data/Segmentation/AT/1_5T/PLIS2_1883_UB/rework.mat'
p128
aS'/med_data/Segmentation/AT/1_5T/PLIS2_3262_NR/rework.mat'
p129
aS'/med_data/Segmentation/AT/1_5T/PREG_SS_3598/rework.mat'
p130
aS'/med_data/Segmentation/AT/1_5T/PREG_3687_EN/rework.mat'
p131
aS'/med_data/Segmentation/AT/1_5T/PREG2_3318_MK/rework.mat'
p132
aS'/med_data/Segmentation/AT/1_5T/TULIP_1400_GS/rework.mat'
p133
aS'/med_data/Segmentation/AT/1_5T/TULIP_1167_AG/rework.mat'
p134
aS'/med_data/Segmentation/AT/1_5T/PLIS_3867_IB/rework.mat'
p135
aS'/med_data/Segmentation/AT/1_5T/TULIP_1808_DW/rework.mat'
p136
aS'/med_data/Segmentation/AT/1_5T/PLIS2_3637_PB_von-Andreas-ausgewertet/rework.mat'
p137
aS'/med_data/Segmentation/AT/1_5T/PLIS3_3376_PL/rework.mat'
p138
aS'/med_data/Segmentation/AT/1_5T/PLIS_3537_HR/rework.mat'
p139
aS'/med_data/Segmentation/AT/1_5T/PLIS_1175_UE/rework.mat'
p140
aS'/med_data/Segmentation/AT/1_5T/PLIS2_734_VL/rework.mat'
p141
aS'/med_data/Segmentation/AT/1_5T/PLIS2_3452_KS/rework.mat'
p142
aS'/med_data/Segmentation/AT/1_5T/PLIS2_3373_DS/rework.mat'
p143
aS'/med_data/Segmentation/AT/1_5T/PLIS2_3350_SS/rework.mat'
p144
aS'/med_data/Segmentation/AT/1_5T/PLIS_3859_UB/rework.mat'
p145
aS'/med_data/Segmentation/AT/1_5T/PREG2_3377_LF/rework.mat'
p146
aS'/med_data/Segmentation/AT/1_5T/PLIS4_3056_PB/rework.mat'
p147
aS'/med_data/Segmentation/AT/1_5T/TULIP_1645_GZ/rework.mat'
p148
aS'/med_data/Segmentation/AT/1_5T/PLIS2_871_CS/rework.mat'
p149
aS'/med_data/Segmentation/AT/1_5T/PLIS3_3554_WL/rework.mat'
p150
aS'/med_data/Segmentation/AT/1_5T/TULIP_1616_DM/rework.mat'
p151
aS'/med_data/Segmentation/AT/1_5T/TULIP_1397_GS/rework.mat'
p152
aS'/med_data/Segmentation/AT/1_5T/PLIS_3556_JH/rework.mat'
p153
aS'/med_data/Segmentation/AT/1_5T/PREG_2964_AH/rework.mat'
p154
aS'/med_data/Segmentation/AT/1_5T/PLIS2_3159_HR/rework.mat'
p155
aS'/med_data/Segmentation/AT/1_5T/PLIS2_1770_MZ/rework.mat'
p156
aS'/med_data/Segmentation/AT/1_5T/PLIS_3660_HL/rework.mat'
p157
aS'/med_data/Segmentation/AT/1_5T/PLIS2_3540_CW/rework.mat'
p158
aS'/med_data/Segmentation/AT/1_5T/PLIS_3773_HF/rework.mat'
p159
aS'/med_data/Segmentation/AT/1_5T/PLIS_4039_KK/rework.mat'
p160
aS'/med_data/Segmentation/AT/1_5T/TULIP_1780_FS/rework.mat'
p161
aS'/med_data/Segmentation/AT/1_5T/PREG2_3281_AE/rework.mat'
p162
aS'/med_data/Segmentation/AT/1_5T/TULIP_1560_EM/rework.mat'
p163
aS'/med_data/Segmentation/AT/1_5T/PLIS3_3243_HK/rework.mat'
p164
aS'/med_data/Segmentation/AT/1_5T/TULIP_1292_JV/rework.mat'
p165
aS'/med_data/Segmentation/AT/1_5T/PLIS_3887_FU/rework.mat'
p166
aS'/med_data/Segmentation/AT/1_5T/PLIS2_3796_AC/rework.mat'
p167
aS'/med_data/Segmentation/AT/1_5T/PLIS_4020_SS/rework.mat'
p168
aS'/med_data/Segmentation/AT/1_5T/PLIS_3825_CE/rework.mat'
p169
aS'/med_data/Segmentation/AT/1_5T/TULIP_1577_ZT/rework.mat'
p170
aS'/med_data/Segmentation/AT/1_5T/PLIS2_3266_HG/rework.mat'
p171
aS'/med_data/Segmentation/AT/1_5T/TULIP_1444_JF/rework.mat'
p172
aS'/med_data/Segmentation/AT/1_5T/PLIS3_3559_KS/rework.mat'
p173
aS'/med_data/Segmentation/AT/1_5T/PLIS_4005_HU/rework.mat'
p174
aS'/med_data/Segmentation/AT/1_5T/PREG_3571_AB/rework.mat'
p175
aS'/med_data/Segmentation/AT/1_5T/PLIS2_1167_AG/rework.mat'
p176
aS'/med_data/Segmentation/AT/1_5T/PLIS3_145_KW/rework.mat'
p177
aS'/med_data/Segmentation/AT/1_5T/PLIS2_3544_DS/rework.mat'
p178
aS'/med_data/Segmentation/AT/1_5T/PLIS3_2957_KE/rework.mat'
p179
aS'/med_data/Segmentation/AT/1_5T/PLIS2_3267_NH/rework.mat'
p180
aS'/med_data/Segmentation/AT/1_5T/PLIS3_263_GW/rework.mat'
p181
aS'/med_data/Segmentation/AT/1_5T/PLIS3_3084_UG/rework.mat'
p182
aS'/med_data/Segmentation/AT/1_5T/PLIS_3875_ES/rework.mat'
p183
aS'/med_data/Segmentation/AT/1_5T/TULIP_263_GW/rework.mat'
p184
aS'/med_data/Segmentation/AT/1_5T/PREG_249_AE/rework.mat'
p185
aS'/med_data/Segmentation/AT/1_5T/PLIS2_1338_RB/rework.mat'
p186
aS'/med_data/Segmentation/AT/1_5T/PLIS3_3566_SS/rework.mat'
p187
aS'/med_data/Segmentation/AT/1_5T/PLIS3_3140_RW/rework.mat'
p188
aS'/med_data/Segmentation/AT/1_5T/PLIS2_3556_JH/rework.mat'
p189
aS'/med_data/Segmentation/AT/1_5T/TULIP_1410_TZ/rework.mat'
p190
aS'/med_data/Segmentation/AT/1_5T/TULIP_1536_DP/rework.mat'
p191
aS'/med_data/Segmentation/AT/1_5T/PLIS_3555_UH/rework.mat'
p192
aS'/med_data/Segmentation/AT/1_5T/PLIS2_3839_SS/rework.mat'
p193
aS'/med_data/Segmentation/AT/1_5T/PLIS2_3157_KS/rework.mat'
p194
aS'/med_data/Segmentation/AT/1_5T/TULIP_1408_JV/rework.mat'
p195
aS'/med_data/Segmentation/AT/1_5T/PLIS2_3864_RF/rework.mat'
p196
aS'/med_data/Segmentation/AT/1_5T/PLIS2_1437_IF/rework.mat'
p197
aS'/med_data/Segmentation/AT/1_5T/PLIS3_3161_HD/rework.mat'
p198
aS'/med_data/Segmentation/AT/1_5T/PLIS3_1166_CG/rework.mat'
p199
aS'/med_data/Segmentation/AT/1_5T/PLIS2_2744_BS/rework.mat'
p200
aS'/med_data/Segmentation/AT/1_5T/PREG_3932_KB/rework.mat'
p201
aS'/med_data/Segmentation/AT/1_5T/TULIP_1388_CS/rework.mat'
p202
aS'/med_data/Segmentation/AT/1_5T/PLIS_1051_HK/rework.mat'
p203
aS'/med_data/Segmentation/AT/1_5T/PLIS3_3758_TB/rework.mat'
p204
aS'/med_data/Segmentation/AT/1_5T/PLIS_3775_FS/rework.mat'
p205
aS'/med_data/Segmentation/AT/1_5T/TULIP_1465_GS/rework.mat'
p206
aS'/med_data/Segmentation/AT/1_5T/PREG2_3495_CE/rework.mat'
p207
aS'/med_data/Segmentation/AT/1_5T/PLIS4_2931_AK/rework.mat'
p208
aS'/med_data/Segmentation/AT/1_5T/PLIS_4018_MB/rework.mat'
p209
aS'/med_data/Segmentation/AT/1_5T/PREG_3427_CG/rework.mat'
p210
aS'/med_data/Segmentation/AT/1_5T/PLIS2_980_BM/rework.mat'
p211
aS'/med_data/Segmentation/AT/1_5T/PREG2_3518_MF/rework.mat'
p212
aS'/med_data/Segmentation/AT/1_5T/TULIP_1623_BH/rework.mat'
p213
aS'/med_data/Segmentation/AT/1_5T/PLIS_3967_CD/rework.mat'
p214
aS'/med_data/Segmentation/AT/1_5T/PLIS2_2996_CS/rework.mat'
p215
aS'/med_data/Segmentation/AT/1_5T/PLIS2_3192_KK/rework.mat'
p216
aS'/med_data/Segmentation/AT/1_5T/PLIS_3845_MK/rework.mat'
p217
aS'/med_data/Segmentation/AT/1_5T/PLIS_3971_LW_von-Andreas-ausgewertet/rework.mat'
p218
aS'/med_data/Segmentation/AT/1_5T/PLIS2_1536_DP/rework.mat'
p219
aS'/med_data/Segmentation/AT/1_5T/PLIS2_3856_MN/rework.mat'
p220
aS'/med_data/Segmentation/AT/1_5T/PLIS4_3367_HS/rework.mat'
p221
aS'/med_data/Segmentation/AT/1_5T/PLIS2_3774_KS/rework.mat'
p222
aS'/med_data/Segmentation/AT/1_5T/PLIS_3829_AE/rework.mat'
p223
aS'/med_data/Segmentation/AT/1_5T/PLIS2_3776_SK/rework.mat'
p224
aS'/med_data/Segmentation/AT/1_5T/PREG_3487_RG/rework.mat'
p225
aS'/med_data/Segmentation/AT/1_5T/PREG_3777_MT/rework.mat'
p226
aS'/med_data/Segmentation/AT/1_5T/PLIS4_3674_AS/rework.mat'
p227
aS'/med_data/Segmentation/AT/1_5T/PLIS_4071_AO/rework.mat'
p228
aS'/med_data/Segmentation/AT/1_5T/PLIS2_3002_BB/rework.mat'
p229
aS'/med_data/Segmentation/AT/1_5T/PLIS_3968_BR_von-Andreas-ausgewertet/rework.mat'
p230
aS'/med_data/Segmentation/AT/1_5T/PLIS2_3469_VR/rework.mat'
p231
aS'/med_data/Segmentation/AT/1_5T/PLIS2_3344_GB/rework.mat'
p232
aS'/med_data/Segmentation/AT/1_5T/TULIP_1942_KH/rework.mat'
p233
aS'/med_data/Segmentation/AT/1_5T/PREG_4016_SR/rework.mat'
p234
aS'/med_data/Segmentation/AT/1_5T/PLIS2_3860_SG/rework.mat'
p235
aS'/med_data/Segmentation/AT/1_5T/PREG2_3436_SP/rework.mat'
p236
aS'/med_data/Segmentation/AT/1_5T/PLIS3_1167_AG/rework.mat'
p237
aS'/med_data/Segmentation/AT/1_5T/TULIP_396_KP/rework.mat'
p238
aS'/med_data/Segmentation/AT/1_5T/PLIS3_1873_RP/rework.mat'
p239
aS'/med_data/Segmentation/AT/1_5T/PLIS4_2744_BS/rework.mat'
p240
aS'/med_data/Segmentation/AT/1_5T/PLIS_3610_MD/rework.mat'
p241
aS'/med_data/Segmentation/AT/1_5T/PLIS3_3544_DS/rework.mat'
p242
aS'/med_data/Segmentation/AT/1_5T/PLIS2_3537_HR/rework.mat'
p243
aS'/med_data/Segmentation/AT/1_5T/PLIS2_1873_RP/rework.mat'
p244
aS'/med_data/Segmentation/AT/1_5T/TULIP_1574_SR/rework.mat'
p245
aS'/med_data/Segmentation/AT/1_5T/PREG_CB/rework.mat'
p246
aS'/med_data/Segmentation/AT/1_5T/PLIS_4056_BK/rework.mat'
p247
aS'/med_data/Segmentation/AT/1_5T/PLIS2_3086_UW/rework.mat'
p248
aS'/med_data/Segmentation/AT/1_5T/PLIS2_3359_GS/rework.mat'
p249
aS'/med_data/Segmentation/AT/1_5T/PLIS2_3613_GF/rework.mat'
p250
aS'/med_data/Segmentation/AT/1_5T/PLIS_3982_CP/rework.mat'
p251
aS'/med_data/Segmentation/AT/1_5T/PLIS2_3803_LS/rework.mat'
p252
aS'/med_data/Segmentation/AT/1_5T/PLIS4_2732_SK/rework.mat'
p253
aS'/med_data/Segmentation/AT/1_5T/PLIS2_3808_CL/rework.mat'
p254
aS'/med_data/Segmentation/AT/1_5T/PLIS3_578_RK/rework.mat'
p255
aS'/med_data/Segmentation/AT/1_5T/PLIS2_1548_HR/rework.mat'
p256
aS'/med_data/Segmentation/AT/1_5T/PLIS2_3452_GS/rework.mat'
p257
aS'/med_data/Segmentation/AT/1_5T/PLIS3_1548_HR/rework.mat'
p258
aS'/med_data/Segmentation/AT/1_5T/PLIS2_3818_HS/rework.mat'
p259
aS'/med_data/Segmentation/AT/1_5T/PLIS3_148_TC/rework.mat'
p260
aS'/med_data/Segmentation/AT/1_5T/PLIS3_917_PN_von-Andreas-ausgewertet/rework.mat'
p261
aS'/med_data/Segmentation/AT/1_5T/PLIS_4063_TZ/rework.mat'
p262
aS'/med_data/Segmentation/AT/1_5T/PLIS2_3063_RF/rework.mat'
p263
aS'/med_data/Segmentation/AT/1_5T/TULIP_167_GM/rework.mat'
p264
aS'/med_data/Segmentation/AT/1_5T/PLIS2_263_GW/rework.mat'
p265
aS'/med_data/Segmentation/AT/1_5T/PLIS_3400_RV/rework.mat'
p266
aS'/med_data/Segmentation/AT/1_5T/TULIP_1874_WW/rework.mat'
p267
aS'/med_data/Segmentation/AT/1_5T/PREG_3659_GK/rework.mat'
p268
aS'/med_data/Segmentation/AT/1_5T/TULIP_1896_SM/rework.mat'
p269
aS'/med_data/Segmentation/AT/1_5T/PLIS3_3250_DS/rework.mat'
p270
aS'/med_data/Segmentation/AT/1_5T/PREG_4108_IH/rework.mat'
p271
aS'/med_data/Segmentation/AT/1_5T/PLIS_3653_WG/rework.mat'
p272
aS'/med_data/Segmentation/AT/1_5T/PLIS_1914_WP/rework.mat'
p273
aS'/med_data/Segmentation/AT/1_5T/PLIS_4086_MB/rework.mat'
p274
aS'/med_data/Segmentation/AT/1_5T/PREG_3568_SG/rework.mat'
p275
aS'/med_data/Segmentation/AT/1_5T/TULIP_1495_HP/rework.mat'
p276
aS'/med_data/Segmentation/AT/1_5T/PLIS2_392_PG/rework.mat'
p277
aS'/med_data/Segmentation/AT/1_5T/PLIS4_1645_GZ_trunk/rework.mat'
p278
aS'/med_data/Segmentation/AT/1_5T/PLIS2_156_BS/rework.mat'
p279
aS'/med_data/Segmentation/AT/1_5T/PLIS2_1363_CP/rework.mat'
p280
aS'/med_data/Segmentation/AT/1_5T/PLIS2_2922_MZ/rework.mat'
p281
aS'/med_data/Segmentation/AT/1_5T/TULIP_1701_CK/rework.mat'
p282
aS'/med_data/Segmentation/AT/1_5T/PLIS3_3457_KK/rework.mat'
p283
aS'/med_data/Segmentation/AT/1_5T/PLIS2_3593_RB/rework.mat'
p284
aS'/med_data/Segmentation/AT/1_5T/PLIS3_1338_RB/rework.mat'
p285
aS'/med_data/Segmentation/AT/1_5T/PLIS2_3316_DF/rework.mat'
p286
aS'/med_data/Segmentation/AT/1_5T/PLIS3_3002_BB/rework.mat'
p287
aS'/med_data/Segmentation/AT/1_5T/PLIS4_3676_UB/rework.mat'
p288
aS'/med_data/Segmentation/AT/1_5T/PLIS4_2502_EJ/rework.mat'
p289
aS'/med_data/Segmentation/AT/1_5T/TULIP2_1535_EH/rework.mat'
p290
aS'/med_data/Segmentation/AT/1_5T/PREG2_3412_AA/rework.mat'
p291
aS'/med_data/Segmentation/AT/1_5T/PLIS2_3105_GKS/rework.mat'
p292
aS'/med_data/Segmentation/AT/1_5T/PLIS2_2327_SW/rework.mat'
p293
aS'/med_data/Segmentation/AT/1_5T/PLIS3_3584_SM/rework.mat'
p294
aS'/med_data/Segmentation/AT/1_5T/TULIP_1612_KG/rework.mat'
p295
aS'/med_data/Segmentation/AT/1_5T/PLIS_3635_WB/rework.mat'
p296
aS'/med_data/Segmentation/AT/1_5T/PLIS3_2502_EJ/rework.mat'
p297
aS'/med_data/Segmentation/AT/1_5T/PLIS2_3834_HE/rework.mat'
p298
aS'/med_data/Segmentation/AT/1_5T/PLIS2_3154_SH/rework.mat'
p299
aS'/med_data/Segmentation/AT/1_5T/PLIS2_2975_HS/rework.mat'
p300
aS'/med_data/Segmentation/AT/1_5T/PLIS4_2957_KE/rework.mat'
p301
aS'/med_data/Segmentation/AT/1_5T/PLIS_3806_BF/rework.mat'
p302
aS'/med_data/Segmentation/AT/1_5T/PREG_2948_OZ/rework.mat'
p303
aS'/med_data/Segmentation/AT/1_5T/PLIS3_3344_GB/rework.mat'
p304
aS'/med_data/Segmentation/AT/1_5T/PLIS_3540_CW/rework.mat'
p305
aS'/med_data/Segmentation/AT/1_5T/PREG_3514_RH/rework.mat'
p306
aS'/med_data/Segmentation/AT/1_5T/GKF5_AK_1614/rework.mat'
p307
aS'/med_data/Segmentation/AT/1_5T/PREG_3518_MF/rework.mat'
p308
aS'/med_data/Segmentation/AT/1_5T/PLIS4_3196_BB/rework.mat'
p309
aS'/med_data/Segmentation/AT/1_5T/PLIS2_3788_MP/rework.mat'
p310
aS'/med_data/Segmentation/AT/1_5T/PLIS3_1634_EN/rework.mat'
p311
aS'/med_data/Segmentation/AT/1_5T/PLIS3_2915_BB/rework.mat'
p312
aS'/med_data/Segmentation/AT/1_5T/TULIP_NU_SK_1503/rework.mat'
p313
aS'/med_data/Segmentation/AT/1_5T/PLIS2_3825_CE/rework.mat'
p314
aS'/med_data/Segmentation/AT/1_5T/PLIS_4062_BD/rework.mat'
p315
aS'/med_data/Segmentation/AT/1_5T/PLIS2_1382_ES/rework.mat'
p316
aS'/med_data/Segmentation/AT/1_5T/TULIP_1618_OK/rework.mat'
p317
aS'/med_data/Segmentation/AT/1_5T/PLIS3_3625_IP/rework.mat'
p318
aS'/med_data/Segmentation/AT/1_5T/PLIS4_1770_MZ/rework.mat'
p319
aS'/med_data/Segmentation/AT/1_5T/PREG_YL/rework.mat'
p320
aS'/med_data/Segmentation/AT/1_5T/PLIS_3818_HS/rework.mat'
p321
aS'/med_data/Segmentation/AT/1_5T/PLIS_2970_SH/rework.mat'
p322
aS'/med_data/Segmentation/AT/1_5T/PLIS2_2732_SK/rework.mat'
p323
aS'/med_data/Segmentation/AT/1_5T/PLIS3_3154_SH/rework.mat'
p324
aS'/med_data/Segmentation/AT/1_5T/TULIP_1606_MK/rework.mat'
p325
aS'/med_data/Segmentation/AT/1_5T/PLIS_3593_RB/rework.mat'
p326
aS'/med_data/Segmentation/AT/1_5T/PREG_3425_YL/rework.mat'
p327
aS'/med_data/Segmentation/AT/1_5T/PLIS_4035_KC/rework.mat'
p328
aS'/med_data/Segmentation/AT/1_5T/PLIS4_3084_UG/rework.mat'
p329
aS'/med_data/Segmentation/AT/1_5T/TULIP_1166_CG/rework.mat'
p330
aS'/med_data/Segmentation/AT/1_5T/PLIS2_2458_RN/rework.mat'
p331
aS'/med_data/Segmentation/AT/1_5T/PLIS2_3773_HF/rework.mat'
p332
aS'/med_data/Segmentation/AT/1_5T/TULIP_1466_EZ/rework.mat'
p333
aS'/med_data/Segmentation/AT/1_5T/PLIS2_3588_HH/rework.mat'
p334
aS'/med_data/Segmentation/AT/1_5T/PREG2_3102_BG/rework.mat'
p335
aS'/med_data/Segmentation/AT/1_5T/PLIS_3913_US/rework.mat'
p336
aS'/med_data/Segmentation/AT/1_5T/PLIS2_3554_WL/rework.mat'
p337
aS'/med_data/Segmentation/AT/1_5T/PLIS2_3457_KK/rework.mat'
p338
aS'/med_data/Segmentation/AT/1_5T/PREG_3363_BK/rework.mat'
p339
aS'/med_data/Segmentation/AT/1_5T/PREG_3578_SJ/rework.mat'
p340
aS'/med_data/Segmentation/AT/1_5T/PLIS2_3647_AG/rework.mat'
p341
aS'/med_data/Segmentation/AT/1_5T/TULIP_1809_HW/rework.mat'
p342
aS'/med_data/Segmentation/AT/1_5T/PLIS2_1874_WW/rework.mat'
p343
aS'/med_data/Segmentation/AT/1_5T/PLIS_4043_IS/rework.mat'
p344
aS'/med_data/Segmentation/AT/1_5T/PLIS4_3660_HL/rework.mat'
p345
aS'/med_data/Segmentation/AT/1_5T/PLIS4_1873_RP/rework.mat'
p346
aS'/med_data/Segmentation/AT/1_5T/TULIP_1033_DL/rework.mat'
p347
aS'/med_data/Segmentation/AT/1_5T/PLIS2_3566_SS/rework.mat'
p348
aS'/med_data/Segmentation/AT/1_5T/TULIP_1640_OH/rework.mat'
p349
aS'/med_data/Segmentation/AT/1_5T/PLIS3_1306_BS/rework.mat'
p350
aS'/med_data/Segmentation/AT/1_5T/PREG_3789_MH/rework.mat'
p351
aS'/med_data/Segmentation/AT/1_5T/PREG_JK_3489/rework.mat'
p352
aS'/med_data/Segmentation/AT/1_5T/PLIS3_3400_RV_von-Andreas-ausgewertet/rework.mat'
p353
aS'/med_data/Segmentation/AT/1_5T/PLIS_3528_AF/rework.mat'
p354
aS'/med_data/Segmentation/AT/1_5T/PLIS3_1456_BZ/rework.mat'
p355
aS'/med_data/Segmentation/AT/1_5T/PREG2_3462_FO/rework.mat'
p356
aS'/med_data/Segmentation/AT/1_5T/PLIS2_3845_MK/rework.mat'
p357
aS'/med_data/Segmentation/AT/1_5T/PLIS_171_ES/rework.mat'
p358
aS'/med_data/Segmentation/AT/1_5T/PLIS_4009_MF/rework.mat'
p359
aS'/med_data/Segmentation/AT/1_5T/PREG3_3112_JS/rework.mat'
p360
aS'/med_data/Segmentation/AT/1_5T/TULIP_1902_WD/rework.mat'
p361
aS'/med_data/Segmentation/AT/1_5T/TULIP_1449_EB/rework.mat'
p362
aS'/med_data/Segmentation/AT/1_5T/PLIS2_3829_AE/rework.mat'
p363
aS'/med_data/Segmentation/AT/1_5T/PLIS_3586_CL/rework.mat'
p364
aS'/med_data/Segmentation/AT/1_5T/PLIS_3674_AS/rework.mat'
p365
aS'/med_data/Segmentation/AT/1_5T/PLIS2_3078_JW/rework.mat'
p366
aS'/med_data/Segmentation/AT/1_5T/PLIS3_1770_MZ/rework.mat'
p367
aS'/med_data/Segmentation/AT/1_5T/PREG_3509_KK/rework.mat'
p368
aS'/med_data/Segmentation/AT/1_5T/PLIS_4155_HB/rework.mat'
p369
aS'/med_data/Segmentation/AT/1_5T/PREG_3453_LZ/rework.mat'
p370
aS'/med_data/Segmentation/AT/1_5T/PLIS4_3316_DF/rework.mat'
p371
aS'/med_data/Segmentation/AT/1_5T/TULIP_1328_ML/rework.mat'
p372
aS'/med_data/Segmentation/AT/1_5T/PLIS_1662_MS/rework.mat'
p373
aS'/med_data/Segmentation/AT/1_5T/PLIS_3796_AC/rework.mat'
p374
aS'/med_data/Segmentation/AT/1_5T/PLIS2_1645_GZ/rework.mat'
p375
aS'/med_data/Segmentation/AT/1_5T/PLIS3_2922_MZ_von-Andreas-ausgewertet/rework.mat'
p376
aS'/med_data/Segmentation/AT/1_5T/PLIS_4095_RG/rework.mat'
p377
aS'/med_data/Segmentation/AT/1_5T/PREG2_3304_CK/rework.mat'
p378
aS'/med_data/Segmentation/AT/1_5T/PLIS_903_GS/rework.mat'
p379
aS'/med_data/Segmentation/AT/1_5T/PLIS3_3089_MS/rework.mat'
p380
aS'/med_data/Segmentation/AT/1_5T/PLIS2_1166_CG/rework.mat'
p381
aS'/med_data/Segmentation/AT/1_5T/PLIS2_OB_3642/rework.mat'
p382
aS'/med_data/Segmentation/AT/1_5T/PLIS_3782_BG/rework.mat'
p383
aS'/med_data/Segmentation/AT/1_5T/PLIS4_3373_DS/rework.mat'
p384
aS'/med_data/Segmentation/AT/1_5T/TULIP_1491_MS/rework.mat'
p385
aS'/med_data/Segmentation/AT/1_5T/PLIS2_3059_HA/rework.mat'
p386
aS'/med_data/Segmentation/AT/1_5T/PLIS_4053_JS/rework.mat'
p387
aS'/med_data/Segmentation/AT/1_5T/PLIS3_3267_NH/rework.mat'
p388
aS'/med_data/Segmentation/AT/1_5T/PLIS_1565_HW/rework.mat'
p389
aS'/med_data/Segmentation/AT/1_5T/PLIS_3676_UB/rework.mat'
p390
aS'/med_data/Segmentation/AT/1_5T/PREG_3441_LS/rework.mat'
p391
aS'/med_data/Segmentation/AT/1_5T/TULIP_413_JS/rework.mat'
p392
aS'/med_data/Segmentation/AT/1_5T/PLIS_4024_RK/rework.mat'
p393
aS'/med_data/Segmentation/AT/1_5T/TULIP_1380_GE/rework.mat'
p394
aS'/med_data/Segmentation/AT/1_5T/PLIS2_3660_HL/rework.mat'
p395
aS'/med_data/Segmentation/AT/1_5T/PLIS3_3546_SM/rework.mat'
p396
aS'/med_data/Segmentation/AT/1_5T/PLIS_3988_MH/rework.mat'
p397
aS'/med_data/Segmentation/AT/1_5T/PLIS_3532_CH/rework.mat'
p398
aS'/med_data/Segmentation/AT/1_5T/PLIS_4097_HG/rework.mat'
p399
aS'/med_data/Segmentation/AT/1_5T/PREG_3897_HP/rework.mat'
p400
aS'/med_data/Segmentation/AT/1_5T/PLIS2_1315_EF/rework.mat'
p401
aS'/med_data/Segmentation/AT/1_5T/PLIS2_654_HF/rework.mat'
p402
aS'/med_data/Segmentation/AT/1_5T/PLIS2_1397_GS/rework.mat'
p403
aS'/med_data/Segmentation/AT/1_5T/PLIS_3606_EN/rework.mat'
p404
aS'/med_data/Segmentation/AT/1_5T/PLIS2_3635_WB_von-Andreas-ausgewertet/rework.mat'
p405
aS'/med_data/Segmentation/AT/1_5T/PLIS3_3177_DR/rework.mat'
p406
aS'/med_data/Segmentation/AT/1_5T/PLIS2_3222_RG/rework.mat'
p407
aS'/med_data/Segmentation/AT/1_5T/PLIS3_3388_SS/rework.mat'
p408
aS'/med_data/Segmentation/AT/1_5T/PREG_3652_DW/rework.mat'
p409
aS'/med_data/Segmentation/AT/1_5T/PLIS4_3266_HG/rework.mat'
p410
aS'/med_data/Segmentation/AT/1_5T/PREG2_469_BB/rework.mat'
p411
aS'/med_data/Segmentation/AT/1_5T/PLIS_3544_DS/rework.mat'
p412
aS'/med_data/Segmentation/AT/1_5T/PREG2_249_AE/rework.mat'
p413
aS'/med_data/Segmentation/AT/1_5T/PLIS2_917_PN/rework.mat'
p414
aS'/med_data/Segmentation/AT/1_5T/PLIS3_2931_AK/rework.mat'
p415
aS'/med_data/Segmentation/AT/1_5T/PLIS_MA4098/rework.mat'
p416
aS'/med_data/Segmentation/AT/1_5T/PLIS2_3850_MM_manuell/rework.mat'
p417
aS'/med_data/Segmentation/AT/1_5T/PLIS3_3540_CW/rework.mat'
p418
aS'/med_data/Segmentation/AT/1_5T/PREG_3835_SH/rework.mat'
p419
aS'/med_data/Segmentation/AT/1_5T/PLIS4_3340_FA/rework.mat'
p420
aS'/med_data/Segmentation/AT/1_5T/PLIS3_2996_CS/rework.mat'
p421
aS'/med_data/Segmentation/AT/1_5T/PLIS_3984_SR/rework.mat'
p422
aS'/med_data/Segmentation/AT/1_5T/PLIS_4030_IK/rework.mat'
p423
aS'/med_data/Segmentation/AT/1_5T/PLIS2_3606_EN/rework.mat'
p424
aS'/med_data/Segmentation/AT/1_5T/PLIS2_3653_WG/rework.mat'
p425
aS'/med_data/Segmentation/AT/1_5T/PLIS2_1623_BH/rework.mat'
p426
aS'/med_data/Segmentation/AT/1_5T/PLIS2_2926_RM/rework.mat'
p427
aS'/med_data/Segmentation/AT/1_5T/PREG2_3486_AH/rework.mat'
p428
aS'/med_data/Segmentation/AT/1_5T/PLIS_3791_KK/rework.mat'
p429
aS'/med_data/Segmentation/AT/1_5T/TULIP_1690_UG/rework.mat'
p430
aS'/med_data/Segmentation/AT/1_5T/TULIP_145_KW/rework.mat'
p431
aS'/med_data/Segmentation/AT/1_5T/PLIS_4034_ST/rework.mat'
p432
aS'/med_data/Segmentation/AT/1_5T/PLIS3_2973_PD/rework.mat'
p433
aS'/med_data/Segmentation/AT/1_5T/PREG_3608_OB/rework.mat'
p434
aS'/med_data/Segmentation/AT/1_5T/PREG2_3242_NF/rework.mat'
p435
aS'/med_data/Segmentation/AT/1_5T/TULIP_1459_KH/rework.mat'
p436
aS'/med_data/Segmentation/AT/1_5T/PLIS3_3529_TL/rework.mat'
p437
aS'/med_data/Segmentation/AT/1_5T/PLIS3_517_CB/rework.mat'
p438
aS'/med_data/Segmentation/AT/1_5T/PREG_3012_MD/rework.mat'
p439
aS'/med_data/Segmentation/AT/1_5T/PREG_3802_AZ/rework.mat'
p440
aS'/med_data/Segmentation/AT/1_5T/PLIS3_156_BS/rework.mat'
p441
aS'/med_data/Segmentation/AT/1_5T/PLIS3_1652_GJ/rework.mat'
p442
aS'/med_data/Segmentation/AT/1_5T/PLIS_3860_SG/rework.mat'
p443
aS'/med_data/Segmentation/AT/1_5T/TULIP_1249_MR/rework.mat'
p444
aS'/med_data/Segmentation/AT/1_5T/TULIP_1382_ES/rework.mat'
p445
aS'/med_data/Segmentation/AT/1_5T/PLIS_3642_OB/rework.mat'
p446
aS'/med_data/Segmentation/AT/1_5T/TULIP_1583_IS/rework.mat'
p447
aS'/med_data/Segmentation/AT/1_5T/PLIS2_3817_RH/rework.mat'
p448
aS'/med_data/Segmentation/AT/1_5T/PLIS2_2673_IP/rework.mat'
p449
aS'/med_data/Segmentation/AT/1_5T/PLIS_3856_MN/rework.mat'
p450
aS'/med_data/Segmentation/AT/1_5T/PREG_2280_TR/rework.mat'
p451
aS'/med_data/Segmentation/AT/1_5T/PLIS2_2912_HR/rework.mat'
p452
aS'/med_data/Segmentation/AT/1_5T/TULIP_1554_SB/rework.mat'
p453
aS'/med_data/Segmentation/AT/1_5T/PLIS2_3161_HD/rework.mat'
p454
aS'/med_data/Segmentation/AT/1_5T/PREG_3780_NZ/rework.mat'
p455
aS'/med_data/Segmentation/AT/1_5T/PLIS2_3602_HN/rework.mat'
p456
aS'/med_data/Segmentation/AT/1_5T/PLIS3_3316_DF/rework.mat'
p457
aS'/med_data/Segmentation/AT/1_5T/PLIS2_3357_MK/rework.mat'
p458
aS'/med_data/Segmentation/AT/1_5T/PLIS4_3063_RF/rework.mat'
p459
aS'/med_data/Segmentation/AT/1_5T/PLIS_3971_BV_von-Andreas-ausgewertet/rework.mat'
p460
aS'/med_data/Segmentation/AT/1_5T/PLIS_3790_MM/rework.mat'
p461
aS'/med_data/Segmentation/AT/1_5T/TULIP_1519_UZ/rework.mat'
p462
aS'/med_data/Segmentation/AT/1_5T/PLIS3_1606_MK/rework.mat'
p463
aS'/med_data/Segmentation/AT/1_5T/PLIS2_1404_BJ/rework.mat'
p464
aS'/med_data/Segmentation/AT/1_5T/PLIS_4078_HG/rework.mat'
p465
aS'/med_data/Segmentation/AT/1_5T/TULIP_322_MK/rework.mat'
p466
aS'/med_data/Segmentation/AT/1_5T/PREG_3994_AN/rework.mat'
p467
aS'/med_data/Segmentation/AT/1_5T/PLIS3_3406_UK_von-Andreas-ausgewertet/rework.mat'
p468
aS'/med_data/Segmentation/AT/1_5T/PLIS4_2954_UT/rework.mat'
p469
aS'/med_data/Segmentation/AT/1_5T/PLIS2_3056_PB/rework.mat'
p470
aS'/med_data/Segmentation/AT/1_5T/PLIS3_2912_HR/rework.mat'
p471
aS'/med_data/Segmentation/AT/1_5T/PREG2_3427_CG/rework.mat'
p472
aS'/med_data/Segmentation/AT/1_5T/TULIP_1365_GM/rework.mat'
p473
aS'/med_data/Segmentation/AT/1_5T/PLIS_3750_PR/rework.mat'
p474
aS'/med_data/Segmentation/AT/1_5T/PREG_3372_SR/rework.mat'
p475
aS'/med_data/Segmentation/AT/1_5T/PREG2_2978_MH/rework.mat'
p476
aS'/med_data/Segmentation/AT/1_5T/PLIS3_3041_TS/rework.mat'
p477
aS'/med_data/Segmentation/AT/1_5T/PLIS4_517_CB/rework.mat'
p478
aS'/med_data/Segmentation/AT/1_5T/PREG_3804_NH/rework.mat'
p479
aS'/med_data/Segmentation/AT/1_5T/PLIS2_517_CB/rework.mat'
p480
aS'/med_data/Segmentation/AT/1_5T/PLIS4_3243_HK/rework.mat'
p481
aS'/med_data/Segmentation/AT/1_5T/PLIS_1652_GJ/rework.mat'
p482
aS'/med_data/Segmentation/AT/1_5T/PLIS2_3243_HK/rework.mat'
p483
aS'/med_data/Segmentation/AT/1_5T/PREG_3382_CO/rework.mat'
p484
aS'/med_data/Segmentation/AT/1_5T/PLIS2_3584_SM/rework.mat'
p485
aS'/med_data/Segmentation/AT/1_5T/PLIS2_3251_KH/rework.mat'
p486
aS'/med_data/Segmentation/AT/1_5T/PREG_3690_AL/rework.mat'
p487
aS'/med_data/Segmentation/AT/1_5T/PLIS2_3790_MM/rework.mat'
p488
aS'/med_data/Segmentation/AT/1_5T/PLIS2_3074_AL/rework.mat'
p489
aS'/med_data/Segmentation/AT/1_5T/PLIS2_3687_EN/rework.mat'
p490
aS'/med_data/Segmentation/AT/1_5T/PLIS_3554_WL/rework.mat'
p491
aS'/med_data/Segmentation/AT/1_5T/PLIS2_1634_EN/rework.mat'
p492
aS'/med_data/Segmentation/AT/1_5T/PLIS3_3248_AP/rework.mat'
p493
aS'/med_data/Segmentation/AT/1_5T/PLIS4_3359_GS/rework.mat'
p494
aS'/med_data/Segmentation/AT/1_5T/PREG2_3503_OM/rework.mat'
p495
aS'/med_data/Segmentation/AT/1_5T/PLIS_3546_SM/rework.mat'
p496
aS'/med_data/Segmentation/AT/1_5T/PLIS_3637_PB/rework.mat'
p497
aS'/med_data/Segmentation/AT/1_5T/PLIS2_3806_BF/rework.mat'
p498
aS'/med_data/Segmentation/AT/1_5T/PLIS2_3131_BH/rework.mat'
p499
aS'/med_data/Segmentation/AT/1_5T/PLIS2_3772_RH/rework.mat'
p500
aS'/med_data/Segmentation/AT/1_5T/PLIS2_3571_AK/rework.mat'
p501
aS'/med_data/Segmentation/AT/1_5T/PLIS_KR_3877/rework.mat'
p502
aS'/med_data/Segmentation/AT/1_5T/PLIS2_3782_BG/rework.mat'
p503
aS'/med_data/Segmentation/AT/1_5T/PLIS2_3254_GB/rework.mat'
p504
aS'/med_data/Segmentation/AT/1_5T/PLIS2_3565_MS/rework.mat'
p505
aS'/med_data/Segmentation/AT/1_5T/PLIS2_3529_TL/rework.mat'
p506
aS'/med_data/Segmentation/AT/1_5T/PLIS_2258_BK/rework.mat'
p507
aS'/med_data/Segmentation/AT/1_5T/TULIP_1409_BN/rework.mat'
p508
aS'/med_data/Segmentation/AT/1_5T/PREG2_SM_120830/rework.mat'
p509
aS'/med_data/Segmentation/AT/1_5T/PLIS_3728_BT/rework.mat'
p510
aS'/med_data/Segmentation/AT/1_5T/PREG_3501_KK/rework.mat'
p511
aS'/med_data/Segmentation/AT/1_5T/GKF_EL_1576/rework.mat'
p512
aS'/med_data/Segmentation/AT/1_5T/TULIP_1338_RB/rework.mat'
p513
aS'/med_data/Segmentation/AT/1_5T/PLIS_3911_KB/rework.mat'
p514
aS'/med_data/Segmentation/AT/1_5T/PLIS3_3053_LM/rework.mat'
p515
aS'/med_data/Segmentation/AT/1_5T/TULIP_1911_EE/rework.mat'
p516
aS'/med_data/Segmentation/AT/1_5T/PLIS_3515_RN/rework.mat'
p517
aS'/med_data/Segmentation/AT/1_5T/PLIS_3758_TB (rework error)/rework.mat'
p518
aS'/med_data/Segmentation/AT/1_5T/PREG_3412_AA/rework.mat'
p519
aS'/med_data/Segmentation/AT/1_5T/PLIS2_3875_ES/rework.mat'
p520
aS'/med_data/Segmentation/AT/1_5T/PLIS3_2673_IP/rework.mat'
p521
aS'/med_data/Segmentation/AT/1_5T/PLIS_4100_AL/rework.mat'
p522
aS'/med_data/Segmentation/AT/1_5T/PLIS_3601_AS/rework.mat'
p523
aS'/med_data/Segmentation/AT/1_5T/PLIS3_3157_KS/rework.mat'
p524
aS'/med_data/Segmentation/AT/1_5T/PLIS_3565_MS/rework.mat'
p525
aS'/med_data/Segmentation/AT/1_5T/PLIS2_3945_DL/rework.mat'
p526
aS'/med_data/Segmentation/AT/1_5T/PLIS4_2896_HS/rework.mat'
p527
aS'/med_data/Segmentation/AT/1_5T/PLIS2_3625_IP/rework.mat'
p528
aS'/med_data/Segmentation/AT/1_5T/TULIP2_1612_KG/rework.mat'
p529
aS'/med_data/Segmentation/AT/1_5T/PLIS2_804_AS/rework.mat'
p530
aS'/med_data/Segmentation/AT/1_5T/PLIS2_3811_HT/rework.mat'
p531
aS'/med_data/Segmentation/AT/1_5T/PREG_3603_JB/rework.mat'
p532
aS'/med_data/Segmentation/AT/1_5T/PLIS_3811_HT/rework.mat'
p533
aS'/med_data/Segmentation/AT/1_5T/PLIS2_2769_TF/rework.mat'
p534
aS'/med_data/Segmentation/AT/1_5T/PLIS2_2733_PL/rework.mat'
p535
aS'/med_data/Segmentation/AT/1_5T/TULIP_1535_EH/rework.mat'
p536
aS'/med_data/Segmentation/AT/1_5T/PLIS3_2777_CF/rework.mat'
p537
aS'/med_data/Segmentation/AT/1_5T/PLIS_3836_SF/rework.mat'
p538
aS'/med_data/Segmentation/AT/1_5T/PREG_3440_KZ/rework.mat'
p539
aS'/med_data/Segmentation/AT/1_5T/PLIS4_148_TC/rework.mat'
p540
aS'/med_data/Segmentation/AT/1_5T/PLIS2_2708_JN/rework.mat'
p541
aS'/med_data/Segmentation/AT/1_5T/PLIS2_3559_KS/rework.mat'
p542
aS'/med_data/Segmentation/AT/1_5T/PLIS4_177_CD/rework.mat'
p543
aS'/med_data/Segmentation/AT/1_5T/PLIS2_2984_GF/rework.mat'
p544
aS'/med_data/Segmentation/AT/1_5T/PLIS2_MF_2753/rework.mat'
p545
aS'/med_data/Segmentation/AT/1_5T/PLIS_3892_MM/rework.mat'
p546
aS'/med_data/Segmentation/AT/1_5T/PLIS3_3284_KH/rework.mat'
p547
aS'/med_data/Segmentation/AT/1_5T/TULIP_1327_MK/rework.mat'
p548
aS'/med_data/Segmentation/AT/1_5T/PLIS2_3139_LO/rework.mat'
p549
aS'/med_data/Segmentation/AT/1_5T/TULIP_1548_HR/rework.mat'
p550
aS'/med_data/Segmentation/AT/1_5T/PLIS3_3086_UW/rework.mat'
p551
aS'/med_data/Segmentation/AT/1_5T/PLIS3_3357_MK/rework.mat'
p552
aS'/med_data/Segmentation/AT/1_5T/PREG_469_BB/rework.mat'
p553
aS'/med_data/Segmentation/AT/1_5T/PREG_3649_JR/rework.mat'
p554
aS'/med_data/Segmentation/AT/1_5T/PREG_3246_SM2/rework.mat'
p555
aS'/med_data/Segmentation/AT/1_5T/PLIS3_3305_JR/rework.mat'
p556
aS'/med_data/Segmentation/AT/1_5T/PLIS2_3586_CL/rework.mat'
p557
aS'/med_data/Segmentation/AT/1_5T/TULIP_1516_SH/rework.mat'
p558
aS'/med_data/Segmentation/AT/1_5T/PLIS2_3475_AB/rework.mat'
p559
aS'/med_data/Segmentation/AT/1_5T/PREG_1981_SB/rework.mat'
p560
aS'/med_data/Segmentation/AT/1_5T/PLIS2_1400_GS/rework.mat'
p561
aS'/med_data/Segmentation/AT/1_5T/PLIS_4021_BM/rework.mat'
p562
aS'/med_data/Segmentation/AT/1_5T/PLIS4_3248_AP/rework.mat'
p563
aS'/med_data/Segmentation/AT/1_5T/PLIS_3457_KK/rework.mat'
p564
aS'/med_data/Segmentation/AT/1_5T/PLIS2_3388_SS/rework.mat'
p565
aS'/med_data/Segmentation/AT/1_5T/PLIS_3629_DL/rework.mat'
p566
aS'/med_data/Segmentation/AT/1_5T/PLIS2_3859_UB/rework.mat'
p567
aS'/med_data/Segmentation/AT/1_5T/PLIS_4017_EB/rework.mat'
p568
aS'/med_data/Segmentation/AT/1_5T/PLIS4_3121_IN/rework.mat'
p569
aS'/med_data/Segmentation/AT/1_5T/PLIS4_156_BS/rework.mat'
p570
aS'/med_data/Segmentation/AT/1_5T/PLIS3_3266_HG/rework.mat'
p571
aS'/med_data/Segmentation/AT/1_5T/PREG2_3317_DC/rework.mat'
p572
aS'/med_data/Segmentation/AT/1_5T/TULIP_1241_KM/rework.mat'
p573
aS'/med_data/Segmentation/AT/1_5T/PLIS2_3750_PR/rework.mat'
p574
aS'/med_data/Segmentation/AT/1_5T/PREG_3091_KG/rework.mat'
p575
aS'/med_data/Segmentation/AT/1_5T/PLIS2_3877_KR/rework.mat'
p576
aS'/med_data/Segmentation/AT/1_5T/PLIS_RM/rework.mat'
p577
aS'/med_data/Segmentation/AT/1_5T/PLIS_4117_AS/rework.mat'
p578
aS'/med_data/Segmentation/AT/1_5T/PREG_3198_JH/rework.mat'
p579
aS'/med_data/Segmentation/AT/1_5T/PLIS3_2954_UT/rework.mat'
p580
aS'/med_data/Segmentation/AT/1_5T/TULIP_1828_MK/rework.mat'
p581
aS'/med_data/Segmentation/AT/1_5T/PLIS_3552_AH/rework.mat'
p582
aS'/med_data/Segmentation/AT/1_5T/TULIP_1550_AS/rework.mat'
p583
aS'/med_data/Segmentation/AT/1_5T/PLIS2_3913_US/rework.mat'
p584
aS'/med_data/Segmentation/AT/1_5T/PLIS4_3053_LM/rework.mat'
p585
aS'/med_data/Segmentation/AT/1_5T/TULIP_917_PN/rework.mat'
p586
aS'/med_data/Segmentation/AT/1_5T/TULIP_392_PG/rework.mat'
p587
aS'/med_data/Segmentation/AT/1_5T/PLIS_3139_LO/rework.mat'
p588
aS'/med_data/Segmentation/AT/1_5T/PLIS2_3812_SK/rework.mat'
p589
aS'/med_data/Segmentation/AT/1_5T/PLIS3_3475_AB/rework.mat'
p590
aS'/med_data/Segmentation/AT/1_5T/PLIS3_3571_AK/rework.mat'
p591
aS'/med_data/Segmentation/AT/1_5T/PREG_3391_KN/rework.mat'
p592
aS'/med_data/Segmentation/AT/1_5T/PREG_3502_AE/rework.mat'
p593
aS'/med_data/Segmentation/AT/1_5T/PREG_3760_HK/rework.mat'
p594
aS'/med_data/Segmentation/AT/1_5T/PLIS3_2896_HS/rework.mat'
p595
aS'/med_data/Segmentation/AT/1_5T/PREG_3436_SP/rework.mat'
p596
aS'/med_data/Segmentation/AT/1_5T/TULIP_1507_CS/rework.mat'
p597
aS'/med_data/Segmentation/AT/1_5T/PLIS2_3054_RR/rework.mat'
p598
aS'/med_data/Segmentation/AT/1_5T/PLIS3_3466_WW/rework.mat'
p599
aS'/med_data/Segmentation/AT/1_5T/PLIS3_3586_CL/rework.mat'
p600
aS'/med_data/Segmentation/AT/1_5T/PLIS3_3373_DS/rework.mat'
p601
aS'/med_data/Segmentation/AT/1_5T/PLIS3_3452_GS/rework.mat'
p602
aS'/med_data/Segmentation/AT/1_5T/PLIS2_3400_RV/rework.mat'
p603
aS'/med_data/Segmentation/AT/1_5T/PLIS_3520_EL/rework.mat'
p604
aS'/med_data/Segmentation/AT/1_5T/PLIS_3613_GF/rework.mat'
p605
aS'/med_data/Segmentation/AT/1_5T/PLIS3_3238_HM/rework.mat'
p606
aS'/med_data/Segmentation/AT/1_5T/PLIS2_3609_GK/rework.mat'
p607
aS'/med_data/Segmentation/AT/1_5T/PLIS_3572_AK/rework.mat'
p608
aS'/med_data/Segmentation/AT/1_5T/PLIS2_3053_LM/rework.mat'
p609
aS'/med_data/Segmentation/AT/1_5T/PLIS_3820_JS/rework.mat'
p610
aS'/med_data/Segmentation/AT/1_5T/PLIS17_3250_DS/rework.mat'
p611
aS'/med_data/Segmentation/AT/1_5T/PLIS3_1536_DP/rework.mat'
p612
aS'/med_data/Segmentation/AT/1_5T/PREG_3384_EW/rework.mat'
p613
aS'/med_data/Segmentation/AT/1_5T/GKF4_CS_871/rework.mat'
p614
aS'/med_data/Segmentation/AT/1_5T/PLIS3_2708_JN/rework.mat'
p615
aS'/med_data/Segmentation/AT/1_5T/PLIS3_3515_RN/rework.mat'
p616
aS'/med_data/Segmentation/AT/1_5T/PLIS2_1652_GJ/rework.mat'
p617
aS'/med_data/Segmentation/AT/1_5T/PLIS3_177_CD/rework.mat'
p618
aS'/med_data/Segmentation/AT/1_5T/PLIS3_3340_FA/rework.mat'
p619
aS'/med_data/Segmentation/AT/1_5T/TULIP_678_MS/rework.mat'
p620
aS'/med_data/Segmentation/AT/1_5T/PLIS2_3178_HR/rework.mat'
p621
aS'/med_data/Segmentation/AT/1_5T/PLIS_3839_SS/rework.mat'
p622
aS'/med_data/Segmentation/AT/1_5T/PLIS_3452_GS/rework.mat'
p623
aS'/med_data/Segmentation/AT/1_5T/PLIS3_2619_SL/rework.mat'
p624
aS'/med_data/Segmentation/AT/1_5T/TULIP_194_HS/rework.mat'
p625
aS'/med_data/Segmentation/AT/1_5T/PREG_3898_DS/rework.mat'
p626
aS'/med_data/Segmentation/AT/1_5T/PLIS2_3507_TH/rework.mat'
p627
aS'/med_data/Segmentation/AT/1_5T/PLIS3_980_BM/rework.mat'
p628
aS'/med_data/Segmentation/AT/1_5T/PLIS3_3222_RG/rework.mat'
p629
aS'/med_data/Segmentation/AT/1_5T/PLIS19_1583_IS/rework.mat'
p630
aS'/med_data/Segmentation/AT/1_5T/PLIS_3452_KS/rework.mat'
p631
aS'/med_data/Segmentation/AT/1_5T/TULIP_1634_EN/rework.mat'
p632
aS'/med_data/Segmentation/AT/1_5T/PLIS3_3555_UH/rework.mat'
p633
aS'/med_data/Segmentation/AT/1_5T/PLIS2_3041_TS/rework.mat'
p634
aS'/med_data/Segmentation/AT/1_5T/PLIS3_3359_GS/rework.mat'
p635
aS'/med_data/Segmentation/AT/1_5T/PLIS2_3520_EL/rework.mat'
p636
aS'/med_data/Segmentation/AT/1_5T/PLIS2_3367_HS/rework.mat'
p637
aS'/med_data/Segmentation/AT/1_5T/PREG2_3198_JH/rework.mat'
p638
aS'/med_data/Segmentation/AT/1_5T/PLIS_3788_MP/rework.mat'
p639
aS'/med_data/Segmentation/AT/1_5T/TULIP_1703_RB/rework.mat'
p640
aS'/med_data/Segmentation/AT/1_5T/PLIS3_3063_RF/rework.mat'
p641
aS'/med_data/Segmentation/AT/1_5T/PLIS_3469_VR/rework.mat'
p642
aS'/med_data/Segmentation/AT/1_5T/PLIS_3899_OE/rework.mat'
p643
aS'/med_data/Segmentation/AT/1_5T/PLIS4_2619_SL/rework.mat'
p644
aS'/med_data/Segmentation/AT/1_5T/PLIS3_2889_HT/rework.mat'
p645
aS'/med_data/Segmentation/AT/1_5T/PLIS2_3571_KK/rework.mat'
p646
aS'/med_data/Segmentation/AT/1_5T/PLIS_3771_CW/rework.mat'
p647
aS'/med_data/Segmentation/AT/1_5T/PLIS_3662_WG/rework.mat'
p648
aS'/med_data/Segmentation/AT/1_5T/PLIS_3815_HF/rework.mat'
p649
aS'/med_data/Segmentation/AT/1_5T/PLIS2_177_CD/rework.mat'
p650
aS'/med_data/Segmentation/AT/1_5T/PLIS3_3159_HR/rework.mat'
p651
aS'/med_data/Segmentation/AT/1_5T/PLIS3_3350_SS/rework.mat'
p652
aS'/med_data/Segmentation/AT/1_5T/PLIS4_2753_MF/rework.mat'
p653
aS'/med_data/Segmentation/AT/1_5T/PLIS2_3763_IR/rework.mat'
p654
aS'/med_data/Segmentation/AT/1_5T/PLIS4_3074_AL/rework.mat'
p655
aS'/med_data/Segmentation/AT/1_5T/PLIS3_2833_WS/rework.mat'
p656
aS'/med_data/Segmentation/AT/1_5T/TULIP_1489_GD/rework.mat'
p657
aS'/med_data/Segmentation/AT/1_5T/PLIS_3932_KB/rework.mat'
p658
aS'/med_data/Segmentation/AT/1_5T/PLIS18_BB_3196/rework.mat'
p659
aS'/med_data/Segmentation/AT/1_5T/PREG_SN3675/rework.mat'
p660
aS'/med_data/Segmentation/AT/1_5T/PLIS2_3775_FS/rework.mat'
p661
aS'/med_data/Segmentation/AT/1_5T/TULIP_513_ST/rework.mat'
p662
aS'/med_data/Segmentation/AT/1_5T/PLIS4_3089_MS/rework.mat'
p663
aS'/med_data/Segmentation/AT/1_5T/PLIS_3477_RE/rework.mat'
p664
aS'/med_data/Segmentation/AT/1_5T/PREG2_2964_AH/rework.mat'
p665
aS'/med_data/Segmentation/AT/1_5T/PLIS2_3610_MD/rework.mat'
p666
aS'/med_data/Segmentation/AT/1_5T/PLIS2_3555_UH/rework.mat'
p667
aS'/med_data/Segmentation/AT/1_5T/PLIS2_3140_RW/rework.mat'
p668
aS'/med_data/Segmentation/AT/1_5T/PLIS3_3074_AL/rework.mat'
p669
aS'/med_data/Segmentation/AT/1_5T/PLIS_3647_AG/rework.mat'
p670
aS'/med_data/Segmentation/AT/1_5T/PLIS2_1565_HW/rework.mat'
p671
aS'/med_data/Segmentation/AT/1_5T/PREG_3587_SM/rework.mat'
p672
aS'/med_data/Segmentation/AT/1_5T/PREG2_3363_BZ/rework.mat'
p673
aS'/med_data/Segmentation/AT/1_5T/PLIS2_1914_WP/rework.mat'
p674
aS'/med_data/Segmentation/AT/1_5T/PLIS2_903_GS/rework.mat'
p675
aS'/med_data/Segmentation/AT/1_5T/TULIP_654_HF/rework.mat'
p676
aS'/med_data/Segmentation/AT/1_5T/PLIS2_3062_MH/rework.mat'
p677
aS'/med_data/Segmentation/AT/1_5T/PLIS2_3552_AH/rework.mat'
p678
aS'/med_data/Segmentation/AT/1_5T/PLIS2_2258_BK/rework.mat'
p679
aS'/med_data/Segmentation/AT/1_5T/PLIS2_3546_SM/rework.mat'
p680
aS'/med_data/Segmentation/AT/1_5T/PLIS2_3284_KH/rework.mat'
p681
aS'/med_data/Segmentation/AT/1_5T/PLIS4_3305_JR/rework.mat'
p682
aS'/med_data/Segmentation/AT/1_5T/PLIS2_1296_TR/rework.mat'
p683
aS'/med_data/Segmentation/AT/1_5T/PLIS_3584_SM/rework.mat'
p684
aS'/med_data/Segmentation/AT/1_5T/PLIS_4031_KF/rework.mat'
p685
aS'/med_data/Segmentation/AT/1_5T/PLIS3_1914_WP/rework.mat'
p686
aS'/med_data/Segmentation/AT/1_5T/PLIS3_3520_EL/rework.mat'
p687
aS'/med_data/Segmentation/AT/1_5T/PLIS2_1489_GD/rework.mat'
p688
aS'/med_data/Segmentation/AT/1_5T/PLIS3_3367_HS/rework.mat'
p689
aS'/med_data/Segmentation/AT/1_5T/PREG_3318_MK/rework.mat'
p690
aS'/med_data/Segmentation/AT/1_5T/PLIS_4087_PR/rework.mat'
p691
aS'/med_data/Segmentation/AT/1_5T/PLIS2_3121_IN/rework.mat'
p692
aS'/med_data/Segmentation/AT/1_5T/PLIS_3776_SK/rework.mat'
p693
aS'/med_data/Segmentation/AT/1_5T/PLIS3_654_HF/rework.mat'
p694
aS'/med_data/Segmentation/AT/1_5T/TULIP_1447_RV/rework.mat'
p695
aS'/med_data/Segmentation/AT/1_5T/TULIP_1748_MS/rework.mat'
p696
aS'/med_data/Segmentation/AT/1_5T/PLIS_3969_EV_von-Andreas-ausgewertet/rework.mat'
p697
aS'/med_data/Segmentation/AT/1_5T/PLIS_3692_AB/rework.mat'
p698
aS'/med_data/Segmentation/AT/1_5T/PLIS3_2902_MH/rework.mat'
p699
aS'/med_data/Segmentation/AT/1_5T/PLIS_3588_HH/rework.mat'
p700
aS'/med_data/Segmentation/AT/1_5T/PLIS_3812_SK/rework.mat'
p701
aS'/med_data/Segmentation/AT/1_5T/PLIS4_3251_KH/rework.mat'
p702
aS'/med_data/Segmentation/AT/1_5T/PREG2_3199_AH/rework.mat'
p703
aS'/med_data/Segmentation/AT/1_5T/PREG_3263_BP/rework.mat'
p704
aS'/med_data/Segmentation/AT/1_5T/PLIS3_3629_DL/rework.mat'
p705
aS'/med_data/Segmentation/AT/1_5T/PLIS_3824_IB/rework.mat'
p706
aS'/med_data/Segmentation/AT/1_5T/PLIS2_3523_MF/rework.mat'
p707
aS'/med_data/Segmentation/AT/1_5T/PLIS_3772_RH/rework.mat'
p708
aS'/med_data/Segmentation/AT/1_5T/PLIS_DL/rework.mat'
p709
aS'/med_data/Segmentation/AT/1_5T/PLIS_3575_GB/rework.mat'
p710
aS'/med_data/Segmentation/AT/1_5T/PLIS_3803_LS/rework.mat'
p711
aS'/med_data/Segmentation/AT/1_5T/PLIS_3817_RH/rework.mat'
p712
aS'/med_data/Segmentation/AT/1_5T/PREG_3377_LF/rework.mat'
p713
aS'/med_data/Segmentation/AT/1_5T/PLIS_3877_KR/rework.mat'
p714
aS'/med_data/Segmentation/AT/1_5T/PLIS4_2777_CF/rework.mat'
p715
aS'/med_data/Segmentation/AT/1_5T/PLIS_3834_HE/rework.mat'
p716
aS'/med_data/Segmentation/AT/1_5T/PLIS_4105_IG/rework.mat'
p717
aS'/med_data/Segmentation/AT/1_5T/PREG_3188_FM/rework.mat'
p718
aS'/med_data/Segmentation/AT/1_5T/PLIS2_3662_WG_von-Andreas-ausgewertet/rework.mat'
p719
aS'/med_data/Segmentation/AT/1_5T/PLIS4_2912_HR/rework.mat'
p720
aS'/med_data/Segmentation/AT/1_5T/PLIS2_1409_BN/rework.mat'
p721
aS'/med_data/Segmentation/AT/1_5T/PLIS2_1456_BZ/rework.mat'
p722
aS'/med_data/Segmentation/AT/1_5T/PLIS_4080_HF/rework.mat'
p723
aS'/med_data/Segmentation/AT/1_5T/PLIS2_3815_WP/rework.mat'
p724
aS'/med_data/Segmentation/AT/1_5T/TULIP_1510_RW/rework.mat'
p725
aS'/med_data/Segmentation/AT/1_5T/PREG_4033_RS/rework.mat'
p726
aS'/med_data/Segmentation/AT/1_5T/TULIP_1565_HW/rework.mat'
p727
aS'/med_data/Segmentation/AT/1_5T/PREG2_3918_SV/rework.mat'
p728
aS'/med_data/Segmentation/AT/1_5T/PREG2_3111_KS/rework.mat'
p729
aS'/med_data/Segmentation/AT/1_5T/PLIS2_578_RK/rework.mat'
p730
aS'/med_data/Segmentation/AT/1_5T/PLIS_3406_UK/rework.mat'
p731
aS'/med_data/Segmentation/AT/1_5T/PREG_4085_LN/rework.mat'
p732
aS'/med_data/Segmentation/AT/1_5T/TULIP_1613_GB/rework.mat'
p733
aS'/med_data/Segmentation/AT/1_5T/PLIS_3521_PC/rework.mat'
p734
aS'/med_data/Segmentation/AT/1_5T/PLIS2_1437_IF_neuu/rework.mat'
p735
aS'/med_data/Segmentation/AT/1_5T/PLIS_3970_AS/rework.mat'
p736
aS'/med_data/Segmentation/AT/1_5T/PLIS3_3602_HN/rework.mat'
p737
aS'/med_data/Segmentation/AT/1_5T/PLIS2_1408_JV/rework.mat'
p738
aS'/med_data/Segmentation/AT/1_5T/PLIS4_2915_BB/rework.mat'
p739
aS'/med_data/Segmentation/AT/1_5T/PLIS4_3357_MK/rework.mat'
p740
aS'/med_data/Segmentation/AT/1_5T/PLIS2_3274_HV/rework.mat'
p741
aS'/med_data/Segmentation/AT/1_5T/PLIS2_3089_MS/rework.mat'
p742
aS'/med_data/Segmentation/AT/1_5T/PLIS3_1400_GS/rework.mat'
p743
aS'/med_data/Segmentation/AT/1_5T/PLIS3_2744_BS/rework.mat'
p744
aS'/med_data/Segmentation/AT/1_5T/PLIS2_3248_AP/rework.mat'
p745
aS'/med_data/Segmentation/AT/1_5T/PREG_3503_OM/rework.mat'
p746
aS'/med_data/Segmentation/AT/1_5T/PLIS4_1315_EF/rework.mat'
p747
aS'/med_data/Segmentation/AT/1_5T/PREG2_3372_SR/rework.mat'
p748
aS'/med_data/Segmentation/AT/1_5T/PLIS3_1296_TR/rework.mat'
p749
aS'/med_data/Segmentation/AT/1_5T/PLIS3_392_PG/rework.mat'
p750
aS'/med_data/Segmentation/AT/1_5T/PLIS_3774_KS/rework.mat'
p751
aS'/med_data/Segmentation/AT/1_5T/PLIS2_3676_UB/rework.mat'
p752
aS'/med_data/Segmentation/AT/1_5T/PLIS2_1292_RV/rework.mat'
p753
aS'/med_data/Segmentation/AT/1_5T/PLIS3_1623_BH/rework.mat'
p754
aS'/med_data/Segmentation/AT/1_5T/PLIS_HL_3660/rework.mat'
p755
aS'/med_data/Segmentation/AT/1_5T/PLIS2_2973_PD/rework.mat'
p756
aS'/med_data/Segmentation/AT/1_5T/PLIS_4067_PB/rework.mat'
p757
aS'/med_data/Segmentation/AT/1_5T/PLIS2_3466_WW/rework.mat'
p758
aS'/med_data/Segmentation/AT/1_5T/PLIS4_3161_HD/rework.mat'
p759
aS'/med_data/Segmentation/AT/1_5T/PLIS3_3054_RR/rework.mat'
p760
a.